(isrc.model.annotator
Annotator
p1
(dp2
S'_Annotator__matches'
p3
(dp4
S'BARVSBAY14'
p5
(isrc.model.match
Match
p6
(dp7
S'_Match__mid'
p8
g5
sS'_Match__plays'
p9
(lp10
sS'_Match__away'
p11
(isrc.model.team
Team
p12
(dp13
S'_Team__name'
p14
S'bayern munich'
p15
sbsS'_Match__score'
p16
(dp17
I1
I0
sI2
I0
ssS'_Match__home'
p18
(isrc.model.team
Team
p19
(dp20
g14
S'barcelona'
p21
sbsS'_Match__state'
p22
Nsbssb.