(isoccerscores.access.annotator
Annotator
p1
(dp2
S'_Annotator__matches'
p3
(dp4
S'LVSP01'
p5
(isoccerscores.core.match
Match
p6
(dp7
S'_Match__mid'
p8
g5
sS'_Match__time'
p9
NsS'_Match__plays'
p10
(lp11
(isoccerscores.core.play
Play
p12
(dp13
S'_Play__team'
p14
S'home'
p15
sS'_Play__time'
p16
I12
sS'_Play__ptype'
p17
I0
sS'_Play__descrip'
p18
S'LOL'
p19
sS'_Play__spec'
p20
I1
sba(isoccerscores.core.play
Play
p21
(dp22
g14
S'away'
p23
sg16
I13
sg17
I2
sg18
S'MICHAEL SCORES'
p24
sg20
I1
sba(isoccerscores.core.play
Play
p25
(dp26
g14
S'away'
p27
sg16
I12
sg17
I1
sg18
S'LOL'
p28
sg20
I0
sba(isoccerscores.core.play
Play
p29
(dp30
g14
S'away'
p31
sg16
I21
sg17
I3
sg18
S'JOHN CHANGES WITH PAUL'
p32
sg20
I7
sba(isoccerscores.core.play
Play
p33
(dp34
g14
S'away'
p35
sg16
I45
sg17
I0
sg18
S'NAH'
p36
sg20
I1
sba(isoccerscores.core.play
Play
p37
(dp38
g14
S'away'
p39
sg16
I5
sg17
I0
sg18
S'AHAH'
p40
sg20
I1
sba(isoccerscores.core.play
Play
p41
(dp42
g14
S'home'
p43
sg16
I5
sg17
I1
sg18
S'LOL'
p44
sg20
I7
sba(isoccerscores.core.play
Play
p45
(dp46
g14
S'away'
p47
sg16
I61
sg17
I0
sg18
S'GOL!!!!!'
p48
sg20
I1
sbasS'_Match__away'
p49
(isoccerscores.core.team
Team
p50
(dp51
S'_Team__name'
p52
S'p'
sS'_Team__players'
p53
(dp54
sbsS'_Match__score'
p55
(dp56
I1
I2
sI2
I1
ssS'_Match__date'
p57
cdatetime
date
p58
(S'\x07\xde\t\x01'
tRp59
sS'_Match__home'
p60
(isoccerscores.core.team
Team
p61
(dp62
g52
S'l'
sg53
(dp63
sbsS'_Match__state'
p64
I00
sbssb.