(isrc.model.annotator
Annotator
p1
(dp2
S'_Annotator__matches'
p3
(dp4
S'NVSN15'
p5
(isrc.model.match
Match
p6
(dp7
S'_Match__mid'
p8
g5
sS'_Match__plays'
p9
(lp10
sS'_Match__views'
p11
c__builtin__
set
p12
((lp13
(isrc.view.annotator
AnnotatorView
p14
(dp15
S'_AnnotatorView__ctrl'
p16
NsS'_AnnotatorView__flag'
p17
I01
sS'ctrl'
p18
(isrc.controller.annotator
AnnotatorController
p19
(dp20
S'model'
p21
g1
sS'_AnnotatorController__model'
p22
NsbsS'_AnnotatorView__str_spec'
p23
S"0: 'Hand kick', 1: 'Corner kick',\n2: 'Goal kick', 3: 'Pass', 4: 'Center',\n5: 'Clearance', 6: 'Ahead position', 7: 'None'"
p24
sS'_AnnotatorView__enter_msg'
p25
S'press ENTER to continue...'
p26
sS'_AnnotatorView__str_matches'
p27
(dp28
g5
S'n VS n 0 - 0 |Not started|'
p29
sS'BARVSBAY15'
p30
S'barcelona VS bayern munich 0 - 0 |Not started|'
p31
ssS'_AnnotatorView__str_plays'
p32
(dp33
sS'_AnnotatorView__str_ptype'
p34
S"0: 'Goal', 1: 'Red Card', 2: 'Yellow Card',\n3: 'Change', 4: 'Comment'"
p35
sS'_AnnotatorView__str_match'
p36
S'n VS n 0 - 0 |In progress|'
p37
sbatRp38
sS'_Match__away'
p39
(isrc.model.team
Team
p40
(dp41
S'_Team__name'
p42
S'n'
sbsS'_Match__score'
p43
(dp44
g40
I0
s(isrc.model.team
Team
p45
(dp46
g42
S'n'
sbI0
ssS'_Match__home'
p47
g45
sS'_Match__state'
p48
I01
sbsg30
(isrc.model.match
Match
p49
(dp50
g8
g30
sg9
(lp51
sg11
g12
((ltRp52
sg39
(isrc.model.team
Team
p53
(dp54
g42
S'bayern munich'
p55
sbsg43
(dp56
g53
I0
s(isrc.model.team
Team
p57
(dp58
g42
S'barcelona'
p59
sbI0
ssg47
g57
sg48
NsbssS'_Annotator__views'
p60
g12
((lp61
g14
a(isrc.view.annotator
AnnotatorView
p62
(dp63
g16
Nsg17
I01
sg18
(isrc.controller.annotator
AnnotatorController
p64
(dp65
g21
g1
sg22
Nsbsg23
S"0: 'Hand kick', 1: 'Corner kick',\n2: 'Goal kick', 3: 'Pass', 4: 'Center',\n5: 'Clearance', 6: 'Ahead position', 7: 'None'"
p66
sg25
S'press ENTER to continue...'
p67
sg27
g28
sg32
(dp68
sg34
S"0: 'Goal', 1: 'Red Card', 2: 'Yellow Card',\n3: 'Change', 4: 'Comment'"
p69
sg36
S''
sbatRp70
sb.