(isoccerscores.access.annotator
Annotator
p1
(dp2
S'_Annotator__matches'
p3
(dp4
S'BARVSBAY01'
p5
(isoccerscores.core.match
Match
p6
(dp7
S'_Match__mid'
p8
g5
sS'_Match__time'
p9
NsS'_Match__plays'
p10
(lp11
sS'_Match__away'
p12
(isoccerscores.core.team
Team
p13
(dp14
S'_Team__name'
p15
S'Bayern Munich'
p16
sS'_Team__players'
p17
(dp18
sbsS'_Match__score'
p19
(dp20
I1
I0
sI2
I0
ssS'_Match__date'
p21
cdatetime
date
p22
(S'\x07\xde\t\x01'
tRp23
sS'_Match__home'
p24
(isoccerscores.core.team
Team
p25
(dp26
g15
S'Barcelona'
p27
sg17
(dp28
sbsS'_Match__state'
p29
Nsbssb.