(isrc.model.annotator
Annotator
p1
(dp2
S'_Annotator__matches'
p3
(dp4
S'BARVSBAY15'
p5
(isrc.model.match
Match
p6
(dp7
S'_Match__mid'
p8
g5
sS'_Match__plays'
p9
(lp10
sS'_Match__views'
p11
c__builtin__
set
p12
((ltRp13
sS'_Match__away'
p14
(isrc.model.team
Team
p15
(dp16
S'_Team__name'
p17
S'bayern munich'
p18
sbsS'_Match__score'
p19
(dp20
(isrc.model.team
Team
p21
(dp22
g17
S'barcelona'
p23
sbI0
sg15
I0
ssS'_Match__home'
p24
g21
sS'_Match__state'
p25
NsbssS'_Annotator__views'
p26
g12
((ltRp27
sb.